; Function Attrs: mustprogress nofree norecurse nosync nounwind willreturn memory(none) uwtable
define dso_local ptr @php_XML_ErrorString(i32 noundef %0) local_unnamed_addr #8 {
  %or.cond = icmp ugt i32 %0, 101
  br i1 %or.cond, label %6, label %2

2:                                                ; preds = %1
  %3 = zext nneg i32 %0 to i64
  %4 = getelementptr inbounds nuw [102 x ptr], ptr @error_mapping, i64 0, i64 %3
  %5 = load ptr, ptr %4, align 8, !tbaa !61
  br label %6

6:                                                ; preds = %1, %2
  %.0 = phi ptr [ %5, %2 ], [ @.str, %1 ]
  ret ptr %.0
}